target datalayout = "e-m:e-p270:32:32-p271:32:32-p272:64:64-i64:64-i128:128-f80:128-n8:16:32:64-S128"
target triple = "x86_64-pc-linux-gnu"

%struct._packet_info = type { ptr, ptr, i32, i32, %struct.nstime_t, %struct.nstime_t, %struct.nstime_t, i8, ptr, ptr, ptr, ptr, %struct._address, %struct._address, %struct._address, %struct._address, %struct._address, %struct._address, i32, ptr, i8, [3 x i8], %struct.anon, i32, i32, i32, i32, ptr, i8, ptr, ptr, i16, i16, i32, i32, i16, i32, i32, ptr, ptr, ptr, i8, i8, i16, i16, i16, i32, i16, i16, ptr, ptr, ptr, ptr, ptr, i32, i32 }
%struct.nstime_t = type { i64, i32 }
%struct._address = type { i32, i32, ptr, ptr }
%struct.anon = type { i8, [3 x i8] }
%struct._drda_conv_info_t = type { ptr, ptr, %struct._address, i32, i32 }
%struct._drda_flow_t = type { ptr, ptr }

@proto_drda = internal global i32 0, align 4
@drda_default_sqlam = internal global i32 7, align 4

; Function Attrs: null_pointer_is_valid sspstrong uwtable
define internal ptr @drda_new_flow(ptr noundef %0, ptr noundef %1) #0 {
  %3 = alloca ptr, align 8
  %4 = alloca ptr, align 8
  %5 = alloca ptr, align 8
  store ptr %0, ptr %3, align 8
  store ptr %1, ptr %4, align 8
  call void @llvm.lifetime.start.p0(i64 8, ptr %5) #9
  %6 = load ptr, ptr %3, align 8
  %7 = call noalias ptr @wmem_alloc(ptr noundef %6, i64 noundef 16) #11
  store ptr %7, ptr %5, align 8
  %8 = load ptr, ptr %3, align 8
  %9 = call noalias ptr @wmem_tree_new(ptr noundef %8)
  %10 = load ptr, ptr %5, align 8
  %11 = getelementptr inbounds nuw %struct._drda_flow_t, ptr %10, i32 0, i32 0
  store ptr %9, ptr %11, align 8
  %12 = load ptr, ptr %3, align 8
  %13 = call noalias ptr @wmem_tree_new(ptr noundef %12)
  %14 = load ptr, ptr %5, align 8
  %15 = getelementptr inbounds nuw %struct._drda_flow_t, ptr %14, i32 0, i32 1
  store ptr %13, ptr %15, align 8
  %16 = load ptr, ptr %5, align 8
  %17 = getelementptr inbounds nuw %struct._drda_flow_t, ptr %16, i32 0, i32 1
  %18 = load ptr, ptr %17, align 8
  %19 = load ptr, ptr %4, align 8
  %20 = getelementptr inbounds nuw %struct._packet_info, ptr %19, i32 0, i32 3
  %21 = load i32, ptr %20, align 4
  %22 = load i32, ptr @drda_default_sqlam, align 4
  %23 = zext i32 %22 to i64
  %24 = inttoptr i64 %23 to ptr
  call void @wmem_tree_insert32(ptr noundef %18, i32 noundef %21, ptr noundef %24)
  %25 = load ptr, ptr %5, align 8
  call void @llvm.lifetime.end.p0(i64 8, ptr %5) #9
  ret ptr %25
}

; Function Attrs: null_pointer_is_valid sspstrong uwtable
define internal ptr @drda_get_conv_info(ptr noundef %0) #0 {
  %2 = alloca ptr, align 8
  %3 = alloca ptr, align 8
  %4 = alloca ptr, align 8
  store ptr %0, ptr %2, align 8
  call void @llvm.lifetime.start.p0(i64 8, ptr %3) #9
  %5 = load ptr, ptr %2, align 8
  %6 = call ptr @find_or_create_conversation(ptr noundef %5)
  store ptr %6, ptr %3, align 8
  call void @llvm.lifetime.start.p0(i64 8, ptr %4) #9
  %7 = load ptr, ptr %3, align 8
  %8 = load i32, ptr @proto_drda, align 4
  %9 = call ptr @conversation_get_proto_data(ptr noundef %7, i32 noundef %8)
  store ptr %9, ptr %4, align 8
  %10 = load ptr, ptr %4, align 8
  %11 = icmp eq ptr %10, null
  br i1 %11, label %12, label %28

12:                                               ; preds = %1
  %13 = call ptr @wmem_file_scope()
  %14 = call noalias ptr @wmem_alloc0(ptr noundef %13, i64 noundef 48) #11
  store ptr %14, ptr %4, align 8
  %15 = call ptr @wmem_file_scope()
  %16 = load ptr, ptr %2, align 8
  %17 = call ptr @drda_new_flow(ptr noundef %15, ptr noundef %16)
  %18 = load ptr, ptr %4, align 8
  %19 = getelementptr inbounds nuw %struct._drda_conv_info_t, ptr %18, i32 0, i32 0
  store ptr %17, ptr %19, align 8
  %20 = call ptr @wmem_file_scope()
  %21 = load ptr, ptr %2, align 8
  %22 = call ptr @drda_new_flow(ptr noundef %20, ptr noundef %21)
  %23 = load ptr, ptr %4, align 8
  %24 = getelementptr inbounds nuw %struct._drda_conv_info_t, ptr %23, i32 0, i32 1
  store ptr %22, ptr %24, align 8
  %25 = load ptr, ptr %3, align 8
  %26 = load i32, ptr @proto_drda, align 4
  %27 = load ptr, ptr %4, align 8
  call void @conversation_add_proto_data(ptr noundef %25, i32 noundef %26, ptr noundef %27)
  br label %28

28:                                               ; preds = %12, %1
  %29 = load ptr, ptr %4, align 8
  call void @llvm.lifetime.end.p0(i64 8, ptr %4) #9
  call void @llvm.lifetime.end.p0(i64 8, ptr %3) #9
  ret ptr %29
}