; Function Attrs: null_pointer_is_valid sspstrong uwtable
define internal fastcc ptr @drda_get_conv_info(ptr noundef %0) unnamed_addr #0 {
  %2 = tail call ptr @find_or_create_conversation(ptr noundef %0)
  %3 = load i32, ptr @proto_drda, align 4
  %4 = tail call ptr @conversation_get_proto_data(ptr noundef %2, i32 noundef %3)
  %5 = icmp eq ptr %4, null
  br i1 %5, label %6, label %30

6:                                                ; preds = %1
  %7 = tail call ptr @wmem_file_scope()
  %8 = tail call noalias dereferenceable_or_null(48) ptr @wmem_alloc0(ptr noundef %7, i64 noundef 48) #11
  %9 = tail call ptr @wmem_file_scope()
  %10 = tail call noalias dereferenceable_or_null(16) ptr @wmem_alloc(ptr noundef %9, i64 noundef 16) #11
  %11 = tail call noalias ptr @wmem_tree_new(ptr noundef %9)
  store ptr %11, ptr %10, align 8
  %12 = tail call noalias ptr @wmem_tree_new(ptr noundef %9)
  %13 = getelementptr inbounds nuw i8, ptr %10, i64 8
  store ptr %12, ptr %13, align 8
  %14 = getelementptr inbounds nuw i8, ptr %0, i64 20
  %15 = load i32, ptr %14, align 4
  %16 = load i32, ptr @drda_default_sqlam, align 4
  %17 = zext i32 %16 to i64
  %18 = inttoptr i64 %17 to ptr
  tail call void @wmem_tree_insert32(ptr noundef %12, i32 noundef %15, ptr noundef %18)
  store ptr %10, ptr %8, align 8
  %19 = tail call ptr @wmem_file_scope()
  %20 = tail call noalias dereferenceable_or_null(16) ptr @wmem_alloc(ptr noundef %19, i64 noundef 16) #11
  %21 = tail call noalias ptr @wmem_tree_new(ptr noundef %19)
  store ptr %21, ptr %20, align 8
  %22 = tail call noalias ptr @wmem_tree_new(ptr noundef %19)
  %23 = getelementptr inbounds nuw i8, ptr %20, i64 8
  store ptr %22, ptr %23, align 8
  %24 = load i32, ptr %14, align 4
  %25 = load i32, ptr @drda_default_sqlam, align 4
  %26 = zext i32 %25 to i64
  %27 = inttoptr i64 %26 to ptr
  tail call void @wmem_tree_insert32(ptr noundef %22, i32 noundef %24, ptr noundef %27)
  %28 = getelementptr inbounds nuw i8, ptr %8, i64 8
  store ptr %20, ptr %28, align 8
  %29 = load i32, ptr @proto_drda, align 4
  tail call void @conversation_add_proto_data(ptr noundef %2, i32 noundef %29, ptr noundef %8)
  br label %30

30:                                               ; preds = %6, %1
  %.0 = phi ptr [ %8, %6 ], [ %4, %1 ]
  ret ptr %.0
}